target datalayout = "e-m:e-p270:32:32-p271:32:32-p272:64:64-i64:64-i128:128-f80:128-n8:16:32:64-S128"
target triple = "x86_64-pc-linux-gnu"

%struct.FunctionCallInfoBaseData = type { ptr, ptr, ptr, i32, i8, i16, [0 x %struct.NullableDatum] }
%struct.NullableDatum = type { i64, i8 }
%struct.BrinValues = type { i16, i8, i8, ptr, i64, ptr, ptr }
%struct.BrinDesc = type { ptr, ptr, ptr, ptr, i32, [0 x ptr] }
%struct.FormData_pg_attribute = type { i32, %struct.nameData, i32, i16, i16, i32, i16, i8, i8, i8, i8, i8, i8, i8, i8, i8, i8, i8, i16, i32 }
%struct.nameData = type { [64 x i8] }
%struct.TupleDescData = type { i32, i32, i32, i32, ptr, [0 x %struct.CompactAttribute] }
%struct.CompactAttribute = type { i32, i16, i8, i8, i8, i8, i8, i8, i8 }

; Function Attrs: inlinehint nounwind uwtable
define internal zeroext i1 @DatumGetBool(i64 noundef %0) #2 {
  %2 = alloca i64, align 8
  store i64 %0, ptr %2, align 8
  %3 = load i64, ptr %2, align 8
  %4 = icmp ne i64 %3, 0
  ret i1 %4
}

; Function Attrs: inlinehint nounwind uwtable
define internal i64 @BoolGetDatum(i1 noundef zeroext %0) #2 {
  %2 = alloca i8, align 1
  %3 = zext i1 %0 to i8
  store i8 %3, ptr %2, align 1
  %4 = load i8, ptr %2, align 1, !range !4, !noundef !5
  %5 = trunc i8 %4 to i1
  %6 = select i1 %5, i32 1, i32 0
  %7 = sext i32 %6 to i64
  ret i64 %7
}

; Function Attrs: inlinehint nounwind uwtable
define internal ptr @TupleDescAttr(ptr noundef %0, i32 noundef %1) #2 {
  %3 = alloca ptr, align 8
  %4 = alloca i32, align 4
  %5 = alloca ptr, align 8
  store ptr %0, ptr %3, align 8
  store i32 %1, ptr %4, align 4
  call void @llvm.lifetime.start.p0(i64 8, ptr %5) #5
  %6 = load ptr, ptr %3, align 8
  %7 = load ptr, ptr %3, align 8
  %8 = getelementptr inbounds nuw %struct.TupleDescData, ptr %7, i32 0, i32 0
  %9 = load i32, ptr %8, align 8
  %10 = sext i32 %9 to i64
  %11 = mul i64 %10, 16
  %12 = add i64 24, %11
  %13 = getelementptr inbounds nuw i8, ptr %6, i64 %12
  store ptr %13, ptr %5, align 8
  %14 = load ptr, ptr %5, align 8
  %15 = load i32, ptr %4, align 4
  %16 = sext i32 %15 to i64
  %17 = getelementptr inbounds %struct.FormData_pg_attribute, ptr %14, i64 %16
  call void @llvm.lifetime.end.p0(i64 8, ptr %5) #5
  ret ptr %17
}

; Function Attrs: inlinehint nounwind uwtable
define internal ptr @DatumGetPointer(i64 noundef %0) #2 {
  %2 = alloca i64, align 8
  store i64 %0, ptr %2, align 8
  %3 = load i64, ptr %2, align 8
  %4 = inttoptr i64 %3 to ptr
  ret ptr %4
}

; Function Attrs: nounwind uwtable
define dso_local i64 @brin_minmax_add_value(ptr noundef %0) #0 {
  %2 = alloca i64, align 8
  %3 = alloca ptr, align 8
  %4 = alloca ptr, align 8
  %5 = alloca ptr, align 8
  %6 = alloca i64, align 8
  %7 = alloca i8, align 1
  %8 = alloca i32, align 4
  %9 = alloca ptr, align 8
  %10 = alloca i64, align 8
  %11 = alloca i8, align 1
  %12 = alloca ptr, align 8
  %13 = alloca i16, align 2
  %14 = alloca i32, align 4
  store ptr %0, ptr %3, align 8
  call void @llvm.lifetime.start.p0(i64 8, ptr %4) #5
  %15 = load ptr, ptr %3, align 8
  %16 = getelementptr inbounds nuw %struct.FunctionCallInfoBaseData, ptr %15, i32 0, i32 6
  %17 = getelementptr inbounds [0 x %struct.NullableDatum], ptr %16, i64 0, i64 0
  %18 = getelementptr inbounds nuw %struct.NullableDatum, ptr %17, i32 0, i32 0
  %19 = load i64, ptr %18, align 8
  %20 = call ptr @DatumGetPointer(i64 noundef %19)
  store ptr %20, ptr %4, align 8
  call void @llvm.lifetime.start.p0(i64 8, ptr %5) #5
  %21 = load ptr, ptr %3, align 8
  %22 = getelementptr inbounds nuw %struct.FunctionCallInfoBaseData, ptr %21, i32 0, i32 6
  %23 = getelementptr inbounds [0 x %struct.NullableDatum], ptr %22, i64 0, i64 1
  %24 = getelementptr inbounds nuw %struct.NullableDatum, ptr %23, i32 0, i32 0
  %25 = load i64, ptr %24, align 8
  %26 = call ptr @DatumGetPointer(i64 noundef %25)
  store ptr %26, ptr %5, align 8
  call void @llvm.lifetime.start.p0(i64 8, ptr %6) #5
  %27 = load ptr, ptr %3, align 8
  %28 = getelementptr inbounds nuw %struct.FunctionCallInfoBaseData, ptr %27, i32 0, i32 6
  %29 = getelementptr inbounds [0 x %struct.NullableDatum], ptr %28, i64 0, i64 2
  %30 = getelementptr inbounds nuw %struct.NullableDatum, ptr %29, i32 0, i32 0
  %31 = load i64, ptr %30, align 8
  store i64 %31, ptr %6, align 8
  call void @llvm.lifetime.start.p0(i64 1, ptr %7) #5
  %32 = load ptr, ptr %3, align 8
  %33 = getelementptr inbounds nuw %struct.FunctionCallInfoBaseData, ptr %32, i32 0, i32 6
  %34 = getelementptr inbounds [0 x %struct.NullableDatum], ptr %33, i64 0, i64 3
  %35 = getelementptr inbounds nuw %struct.NullableDatum, ptr %34, i32 0, i32 0
  %36 = load i64, ptr %35, align 8
  %37 = icmp ne i64 %36, 0
  %38 = zext i1 %37 to i8
  store i8 %38, ptr %7, align 1
  call void @llvm.lifetime.start.p0(i64 4, ptr %8) #5
  %39 = load ptr, ptr %3, align 8
  %40 = getelementptr inbounds nuw %struct.FunctionCallInfoBaseData, ptr %39, i32 0, i32 3
  %41 = load i32, ptr %40, align 8
  store i32 %41, ptr %8, align 4
  call void @llvm.lifetime.start.p0(i64 8, ptr %9) #5
  call void @llvm.lifetime.start.p0(i64 8, ptr %10) #5
  call void @llvm.lifetime.start.p0(i64 1, ptr %11) #5
  store i8 0, ptr %11, align 1
  call void @llvm.lifetime.start.p0(i64 8, ptr %12) #5
  call void @llvm.lifetime.start.p0(i64 2, ptr %13) #5
  %42 = load ptr, ptr %5, align 8
  %43 = getelementptr inbounds nuw %struct.BrinValues, ptr %42, i32 0, i32 0
  %44 = load i16, ptr %43, align 8
  store i16 %44, ptr %13, align 2
  %45 = load ptr, ptr %4, align 8
  %46 = getelementptr inbounds nuw %struct.BrinDesc, ptr %45, i32 0, i32 2
  %47 = load ptr, ptr %46, align 8
  %48 = load i16, ptr %13, align 2
  %49 = sext i16 %48 to i32
  %50 = sub i32 %49, 1
  %51 = call ptr @TupleDescAttr(ptr noundef %47, i32 noundef %50)
  store ptr %51, ptr %12, align 8
  %52 = load ptr, ptr %5, align 8
  %53 = getelementptr inbounds nuw %struct.BrinValues, ptr %52, i32 0, i32 2
  %54 = load i8, ptr %53, align 1, !range !4, !noundef !5
  %55 = trunc i8 %54 to i1
  br i1 %55, label %56, label %88

56:                                               ; preds = %1
  %57 = load i64, ptr %6, align 8
  %58 = load ptr, ptr %12, align 8
  %59 = getelementptr inbounds nuw %struct.FormData_pg_attribute, ptr %58, i32 0, i32 7
  %60 = load i8, ptr %59, align 2, !range !4, !noundef !5
  %61 = trunc i8 %60 to i1
  %62 = load ptr, ptr %12, align 8
  %63 = getelementptr inbounds nuw %struct.FormData_pg_attribute, ptr %62, i32 0, i32 3
  %64 = load i16, ptr %63, align 4
  %65 = sext i16 %64 to i32
  %66 = call i64 @datumCopy(i64 noundef %57, i1 noundef zeroext %61, i32 noundef %65)
  %67 = load ptr, ptr %5, align 8
  %68 = getelementptr inbounds nuw %struct.BrinValues, ptr %67, i32 0, i32 3
  %69 = load ptr, ptr %68, align 8
  %70 = getelementptr inbounds i64, ptr %69, i64 0
  store i64 %66, ptr %70, align 8
  %71 = load i64, ptr %6, align 8
  %72 = load ptr, ptr %12, align 8
  %73 = getelementptr inbounds nuw %struct.FormData_pg_attribute, ptr %72, i32 0, i32 7
  %74 = load i8, ptr %73, align 2, !range !4, !noundef !5
  %75 = trunc i8 %74 to i1
  %76 = load ptr, ptr %12, align 8
  %77 = getelementptr inbounds nuw %struct.FormData_pg_attribute, ptr %76, i32 0, i32 3
  %78 = load i16, ptr %77, align 4
  %79 = sext i16 %78 to i32
  %80 = call i64 @datumCopy(i64 noundef %71, i1 noundef zeroext %75, i32 noundef %79)
  %81 = load ptr, ptr %5, align 8
  %82 = getelementptr inbounds nuw %struct.BrinValues, ptr %81, i32 0, i32 3
  %83 = load ptr, ptr %82, align 8
  %84 = getelementptr inbounds i64, ptr %83, i64 1
  store i64 %80, ptr %84, align 8
  %85 = load ptr, ptr %5, align 8
  %86 = getelementptr inbounds nuw %struct.BrinValues, ptr %85, i32 0, i32 2
  store i8 0, ptr %86, align 1
  %87 = call i64 @BoolGetDatum(i1 noundef zeroext true)
  store i64 %87, ptr %2, align 8
  store i32 1, ptr %14, align 4
  br label %182

88:                                               ; preds = %1
  %89 = load ptr, ptr %4, align 8
  %90 = load i16, ptr %13, align 2
  %91 = load ptr, ptr %12, align 8
  %92 = getelementptr inbounds nuw %struct.FormData_pg_attribute, ptr %91, i32 0, i32 2
  %93 = load i32, ptr %92, align 4
  %94 = call ptr @minmax_get_strategy_procinfo(ptr noundef %89, i16 noundef zeroext %90, i32 noundef %93, i16 noundef zeroext 1)
  store ptr %94, ptr %9, align 8
  %95 = load ptr, ptr %9, align 8
  %96 = load i32, ptr %8, align 4
  %97 = load i64, ptr %6, align 8
  %98 = load ptr, ptr %5, align 8
  %99 = getelementptr inbounds nuw %struct.BrinValues, ptr %98, i32 0, i32 3
  %100 = load ptr, ptr %99, align 8
  %101 = getelementptr inbounds i64, ptr %100, i64 0
  %102 = load i64, ptr %101, align 8
  %103 = call i64 @FunctionCall2Coll(ptr noundef %95, i32 noundef %96, i64 noundef %97, i64 noundef %102)
  store i64 %103, ptr %10, align 8
  %104 = load i64, ptr %10, align 8
  %105 = call zeroext i1 @DatumGetBool(i64 noundef %104)
  br i1 %105, label %106, label %133

106:                                              ; preds = %88
  %107 = load ptr, ptr %12, align 8
  %108 = getelementptr inbounds nuw %struct.FormData_pg_attribute, ptr %107, i32 0, i32 7
  %109 = load i8, ptr %108, align 2, !range !4, !noundef !5
  %110 = trunc i8 %109 to i1
  br i1 %110, label %118, label %111

111:                                              ; preds = %106
  %112 = load ptr, ptr %5, align 8
  %113 = getelementptr inbounds nuw %struct.BrinValues, ptr %112, i32 0, i32 3
  %114 = load ptr, ptr %113, align 8
  %115 = getelementptr inbounds i64, ptr %114, i64 0
  %116 = load i64, ptr %115, align 8
  %117 = call ptr @DatumGetPointer(i64 noundef %116)
  call void @pfree(ptr noundef %117)
  br label %118

118:                                              ; preds = %111, %106
  %119 = load i64, ptr %6, align 8
  %120 = load ptr, ptr %12, align 8
  %121 = getelementptr inbounds nuw %struct.FormData_pg_attribute, ptr %120, i32 0, i32 7
  %122 = load i8, ptr %121, align 2, !range !4, !noundef !5
  %123 = trunc i8 %122 to i1
  %124 = load ptr, ptr %12, align 8
  %125 = getelementptr inbounds nuw %struct.FormData_pg_attribute, ptr %124, i32 0, i32 3
  %126 = load i16, ptr %125, align 4
  %127 = sext i16 %126 to i32
  %128 = call i64 @datumCopy(i64 noundef %119, i1 noundef zeroext %123, i32 noundef %127)
  %129 = load ptr, ptr %5, align 8
  %130 = getelementptr inbounds nuw %struct.BrinValues, ptr %129, i32 0, i32 3
  %131 = load ptr, ptr %130, align 8
  %132 = getelementptr inbounds i64, ptr %131, i64 0
  store i64 %128, ptr %132, align 8
  store i8 1, ptr %11, align 1
  br label %133

133:                                              ; preds = %118, %88
  %134 = load ptr, ptr %4, align 8
  %135 = load i16, ptr %13, align 2
  %136 = load ptr, ptr %12, align 8
  %137 = getelementptr inbounds nuw %struct.FormData_pg_attribute, ptr %136, i32 0, i32 2
  %138 = load i32, ptr %137, align 4
  %139 = call ptr @minmax_get_strategy_procinfo(ptr noundef %134, i16 noundef zeroext %135, i32 noundef %138, i16 noundef zeroext 5)
  store ptr %139, ptr %9, align 8
  %140 = load ptr, ptr %9, align 8
  %141 = load i32, ptr %8, align 4
  %142 = load i64, ptr %6, align 8
  %143 = load ptr, ptr %5, align 8
  %144 = getelementptr inbounds nuw %struct.BrinValues, ptr %143, i32 0, i32 3
  %145 = load ptr, ptr %144, align 8
  %146 = getelementptr inbounds i64, ptr %145, i64 1
  %147 = load i64, ptr %146, align 8
  %148 = call i64 @FunctionCall2Coll(ptr noundef %140, i32 noundef %141, i64 noundef %142, i64 noundef %147)
  store i64 %148, ptr %10, align 8
  %149 = load i64, ptr %10, align 8
  %150 = call zeroext i1 @DatumGetBool(i64 noundef %149)
  br i1 %150, label %151, label %178

151:                                              ; preds = %133
  %152 = load ptr, ptr %12, align 8
  %153 = getelementptr inbounds nuw %struct.FormData_pg_attribute, ptr %152, i32 0, i32 7
  %154 = load i8, ptr %153, align 2, !range !4, !noundef !5
  %155 = trunc i8 %154 to i1
  br i1 %155, label %163, label %156

156:                                              ; preds = %151
  %157 = load ptr, ptr %5, align 8
  %158 = getelementptr inbounds nuw %struct.BrinValues, ptr %157, i32 0, i32 3
  %159 = load ptr, ptr %158, align 8
  %160 = getelementptr inbounds i64, ptr %159, i64 1
  %161 = load i64, ptr %160, align 8
  %162 = call ptr @DatumGetPointer(i64 noundef %161)
  call void @pfree(ptr noundef %162)
  br label %163

163:                                              ; preds = %156, %151
  %164 = load i64, ptr %6, align 8
  %165 = load ptr, ptr %12, align 8
  %166 = getelementptr inbounds nuw %struct.FormData_pg_attribute, ptr %165, i32 0, i32 7
  %167 = load i8, ptr %166, align 2, !range !4, !noundef !5
  %168 = trunc i8 %167 to i1
  %169 = load ptr, ptr %12, align 8
  %170 = getelementptr inbounds nuw %struct.FormData_pg_attribute, ptr %169, i32 0, i32 3
  %171 = load i16, ptr %170, align 4
  %172 = sext i16 %171 to i32
  %173 = call i64 @datumCopy(i64 noundef %164, i1 noundef zeroext %168, i32 noundef %172)
  %174 = load ptr, ptr %5, align 8
  %175 = getelementptr inbounds nuw %struct.BrinValues, ptr %174, i32 0, i32 3
  %176 = load ptr, ptr %175, align 8
  %177 = getelementptr inbounds i64, ptr %176, i64 1
  store i64 %173, ptr %177, align 8
  store i8 1, ptr %11, align 1
  br label %178

178:                                              ; preds = %163, %133
  %179 = load i8, ptr %11, align 1, !range !4, !noundef !5
  %180 = trunc i8 %179 to i1
  %181 = call i64 @BoolGetDatum(i1 noundef zeroext %180)
  store i64 %181, ptr %2, align 8
  store i32 1, ptr %14, align 4
  br label %182

182:                                              ; preds = %178, %56
  call void @llvm.lifetime.end.p0(i64 2, ptr %13) #5
  call void @llvm.lifetime.end.p0(i64 8, ptr %12) #5
  call void @llvm.lifetime.end.p0(i64 1, ptr %11) #5
  call void @llvm.lifetime.end.p0(i64 8, ptr %10) #5
  call void @llvm.lifetime.end.p0(i64 8, ptr %9) #5
  call void @llvm.lifetime.end.p0(i64 4, ptr %8) #5
  call void @llvm.lifetime.end.p0(i64 1, ptr %7) #5
  call void @llvm.lifetime.end.p0(i64 8, ptr %6) #5
  call void @llvm.lifetime.end.p0(i64 8, ptr %5) #5
  call void @llvm.lifetime.end.p0(i64 8, ptr %4) #5
  %183 = load i64, ptr %2, align 8
  ret i64 %183
}