; Function Attrs: nounwind uwtable
define dso_local range(i64 0, 2) i64 @brin_minmax_add_value(ptr noundef readonly captures(none) %0) local_unnamed_addr #0 {
  %2 = getelementptr inbounds nuw i8, ptr %0, i64 32
  %3 = load i64, ptr %2, align 8
  %4 = inttoptr i64 %3 to ptr
  %5 = getelementptr inbounds nuw i8, ptr %0, i64 48
  %6 = load i64, ptr %5, align 8
  %7 = inttoptr i64 %6 to ptr
  %8 = getelementptr inbounds nuw i8, ptr %0, i64 64
  %9 = load i64, ptr %8, align 8
  %10 = getelementptr inbounds nuw i8, ptr %0, i64 24
  %11 = load i32, ptr %10, align 8
  %12 = load i16, ptr %7, align 8
  %13 = getelementptr inbounds nuw i8, ptr %4, i64 16
  %14 = load ptr, ptr %13, align 8
  %15 = sext i16 %12 to i64
  %16 = load i32, ptr %14, align 8
  %17 = sext i32 %16 to i64
  %18 = shl nsw i64 %17, 4
  %19 = getelementptr i8, ptr %14, i64 %18
  %20 = getelementptr i8, ptr %19, i64 -76
  %21 = getelementptr %struct.FormData_pg_attribute, ptr %20, i64 %15
  %22 = getelementptr inbounds nuw i8, ptr %7, i64 3
  %23 = load i8, ptr %22, align 1, !range !4, !noundef !5
  %24 = trunc nuw i8 %23 to i1
  br i1 %24, label %25, label %42

25:                                               ; preds = %1
  %26 = getelementptr inbounds nuw i8, ptr %21, i64 82
  %27 = load i8, ptr %26, align 2, !range !4, !noundef !5
  %28 = trunc nuw i8 %27 to i1
  %29 = getelementptr inbounds nuw i8, ptr %21, i64 72
  %30 = load i16, ptr %29, align 4
  %31 = sext i16 %30 to i32
  %32 = tail call i64 @datumCopy(i64 noundef %9, i1 noundef zeroext %28, i32 noundef %31) #4
  %33 = getelementptr inbounds nuw i8, ptr %7, i64 8
  %34 = load ptr, ptr %33, align 8
  store i64 %32, ptr %34, align 8
  %35 = load i8, ptr %26, align 2, !range !4, !noundef !5
  %36 = trunc nuw i8 %35 to i1
  %37 = load i16, ptr %29, align 4
  %38 = sext i16 %37 to i32
  %39 = tail call i64 @datumCopy(i64 noundef %9, i1 noundef zeroext %36, i32 noundef %38) #4
  %40 = load ptr, ptr %33, align 8
  %41 = getelementptr inbounds nuw i8, ptr %40, i64 8
  store i64 %39, ptr %41, align 8
  store i8 0, ptr %22, align 1
  br label %90

42:                                               ; preds = %1
  %43 = getelementptr inbounds nuw i8, ptr %21, i64 68
  %44 = load i32, ptr %43, align 4
  %45 = tail call fastcc ptr @minmax_get_strategy_procinfo(ptr noundef nonnull %4, i16 noundef zeroext %12, i32 noundef %44, i16 noundef zeroext 1)
  %46 = getelementptr inbounds nuw i8, ptr %7, i64 8
  %47 = load ptr, ptr %46, align 8
  %48 = load i64, ptr %47, align 8
  %49 = tail call i64 @FunctionCall2Coll(ptr noundef nonnull %45, i32 noundef %11, i64 noundef %9, i64 noundef %48) #4
  %50 = icmp ne i64 %49, 0
  br i1 %50, label %51, label %65

51:                                               ; preds = %42
  %52 = getelementptr inbounds nuw i8, ptr %21, i64 82
  %53 = load i8, ptr %52, align 2, !range !4, !noundef !5
  %54 = trunc nuw i8 %53 to i1
  br i1 %54, label %59, label %55

55:                                               ; preds = %51
  %56 = load ptr, ptr %46, align 8
  %57 = load i64, ptr %56, align 8
  %58 = inttoptr i64 %57 to ptr
  tail call void @pfree(ptr noundef %58) #4
  %.pre = load i8, ptr %52, align 2, !range !4
  %.pre49 = trunc nuw i8 %.pre to i1
  br label %59

59:                                               ; preds = %55, %51
  %.pre-phi = phi i1 [ %.pre49, %55 ], [ true, %51 ]
  %60 = getelementptr inbounds nuw i8, ptr %21, i64 72
  %61 = load i16, ptr %60, align 4
  %62 = sext i16 %61 to i32
  %63 = tail call i64 @datumCopy(i64 noundef %9, i1 noundef zeroext %.pre-phi, i32 noundef %62) #4
  %64 = load ptr, ptr %46, align 8
  store i64 %63, ptr %64, align 8
  br label %65

65:                                               ; preds = %59, %42
  %66 = load i32, ptr %43, align 4
  %67 = tail call fastcc ptr @minmax_get_strategy_procinfo(ptr noundef nonnull %4, i16 noundef zeroext %12, i32 noundef %66, i16 noundef zeroext 5)
  %68 = load ptr, ptr %46, align 8
  %69 = getelementptr inbounds nuw i8, ptr %68, i64 8
  %70 = load i64, ptr %69, align 8
  %71 = tail call i64 @FunctionCall2Coll(ptr noundef nonnull %67, i32 noundef %11, i64 noundef %9, i64 noundef %70) #4
  %.not = icmp eq i64 %71, 0
  br i1 %.not, label %88, label %72

72:                                               ; preds = %65
  %73 = getelementptr inbounds nuw i8, ptr %21, i64 82
  %74 = load i8, ptr %73, align 2, !range !4, !noundef !5
  %75 = trunc nuw i8 %74 to i1
  br i1 %75, label %81, label %76

76:                                               ; preds = %72
  %77 = load ptr, ptr %46, align 8
  %78 = getelementptr inbounds nuw i8, ptr %77, i64 8
  %79 = load i64, ptr %78, align 8
  %80 = inttoptr i64 %79 to ptr
  tail call void @pfree(ptr noundef %80) #4
  %.pre48 = load i8, ptr %73, align 2, !range !4
  %.pre50 = trunc nuw i8 %.pre48 to i1
  br label %81

81:                                               ; preds = %76, %72
  %.pre-phi51 = phi i1 [ %.pre50, %76 ], [ true, %72 ]
  %82 = getelementptr inbounds nuw i8, ptr %21, i64 72
  %83 = load i16, ptr %82, align 4
  %84 = sext i16 %83 to i32
  %85 = tail call i64 @datumCopy(i64 noundef %9, i1 noundef zeroext %.pre-phi51, i32 noundef %84) #4
  %86 = load ptr, ptr %46, align 8
  %87 = getelementptr inbounds nuw i8, ptr %86, i64 8
  store i64 %85, ptr %87, align 8
  br label %88

88:                                               ; preds = %81, %65
  %.1 = phi i1 [ true, %81 ], [ %50, %65 ]
  %89 = zext i1 %.1 to i64
  br label %90

90:                                               ; preds = %88, %25
  %.0 = phi i64 [ 1, %25 ], [ %89, %88 ]
  ret i64 %.0
}